(lp0
S'worries stocks'
p1
aS'worries china'
p2
aS'space station'
p3
aS'space nasa'
p4
aS'italian banks'
p5
aS'italian yields'
p6
aS'student loan'
p7
aS'student fitch'
p8
aS'boj kuroda'
p9
aS'boj yen'
p10
aS'act affordable'
p11
aS'act care'
p12
aS'aims new'
p13
aS'aims china'
p14
aS'benefits employee'
p15
aS'benefits health'
p16
aS'winning award'
p17
aS'winning streak'
p18
aS'resource stocks'
p19
aS'resource tsx'
p20
aS'letter intent'
p21
aS'letter shareholders'
p22
aS'road silk'
p23
aS'road trip'
p24
aS'held meeting'
p25
aS'held annual'
p26
aS'stop says'
p27
aS'stop shop'
p28
aS'ebola liberia'
p29
aS'ebola leone'
p30
aS'process business'
p31
aS'process sale'
p32
aS'protection data'
p33
aS'protection bankruptcy'
p34
aS'device medical'
p35
aS'device mobile'
p36
aS'science life'
p37
aS'science technology'
p38
aS'gdp pct'
p39
aS'gdp growth'
p40
aS'comments stocks'
p41
aS'comments yellen'
p42
aS'preferred stock'
p43
aS'preferred series'
p44
aS'site new'
p45
aS'site launches'
p46
aS'progress talks'
p47
aS'progress says'
p48
aS'michigan state'
p49
aS'michigan preview'
p50
aS'repurchase share'
p51
aS'repurchase program'
p52
aS'pennsylvania governor'
p53
aS'pennsylvania corbett'
p54
aS'shooting police'
p55
aS'shooting suspect'
p56
aS'johnson controls'
p57
aS'johnson weaver'
p58
aS'collaboration announces'
p59
aS'collaboration announce'
p60
aS'winners award'
p61
aS'winners announces'
p62
aS'straight win'
p63
aS'straight month'
p64
aS'role play'
p65
aS'role new'
p66
aS'peace talks'
p67
aS'peace syria'
p68
aS'compliance risk'
p69
aS'compliance governance'
p70
aS'publishes fitch'
p71
aS'publishes report'
p72
aS'retirement announces'
p73
aS'retirement plan'
p74
aS'film festival'
p75
aS'film new'
p76
aS'anniversary celebrates'
p77
aS'anniversary year'
p78
aS'amazon web'
p79
aS'amazon com'
p80
aS'men olympics'
p81
aS'men results'
p82
aS'feature census'
p83
aS'feature bureau'
p84
aS'mark ce'
p85
aS'mark president'
p86
aS'cell stem'
p87
aS'cell research'
p88
aS'independent firm'
p89
aS'independent director'
p90
aS'stores announces'
p91
aS'stores retail'
p92
aS'round funding'
p93
aS'round million'
p94
aS'look new'
p95
aS'look investors'
p96
aS'watchdog uk'
p97
aS'watchdog says'
p98
aS'daily census'
p99
aS'daily bureau'
p100
aS'fears stocks'
p101
aS'fears china'
p102
aS'rupees table'
p103
aS'rupees bln'
p104
aS'human rights'
p105
aS'human resources'
p106
aS'web amazon'
p107
aS'web services'
p108
aS'monthly distribution'
p109
aS'monthly declares'
p110
aS'heart failure'
p111
aS'heart disease'
p112
aS'poland factors'
p113
aS'poland watch'
p114
aS'political crisis'
p115
aS'political uncertainty'
p116
aS'light green'
p117
aS'light led'
p118
aS'thai se'
p119
aS'thai asia'
p120
aS'drilling gold'
p121
aS'drilling results'
p122
aS'imf says'
p123
aS'imf lagarde'
p124
aS'payments mobile'
p125
aS'payments cards'
p126
aS'supports government'
p127
aS'supports canada'
p128
aS'vehicle sales'
p129
aS'vehicle electric'
p130
aS'begins trading'
p131
aS'begins otcqx'
p132
aS'paris attacks'
p133
aS'paris climate'
p134
aS'jumps profit'
p135
aS'jumps pct'
p136
aS'expectations profit'
p137
aS'expectations beats'
p138
aS'excellence award'
p139
aS'excellence awards'
p140
aS'kills bomb'
p141
aS'kills suicide'
p142
aS'content marketing'
p143
aS'content digital'
p144
aS'racing motor'
p145
aS'racing f1'
p146
aS'filing announces'
p147
aS'filing class'
p148
aS'upgrades fitch'
p149
aS'upgrades stable'
p150
aS'argentina says'
p151
aS'argentina debt'
p152
aS'sri lanka'
p153
aS'sri lankan'
p154
aS'exports oil'
p155
aS'exports pct'
p156
aS'samsung galaxy'
p157
aS'samsung electronics'
p158
aS'dec watch'
p159
aS'dec digest'
p160
aS'fast growing'
p161
aS'fast track'
p162
aS'debut makes'
p163
aS'debut shares'
p164
aS'extend shares'
p165
aS'extend gains'
p166
aS'snapshot stocks'
p167
aS'snapshot wall'
p168
aS'great lakes'
p169
aS'great american'
p170
aS'strikes air'
p171
aS'strikes syria'
p172
aS'level highest'
p173
aS'level lowest'
p174
aS'book new'
p175
aS'book author'
p176
aS'virginia west'
p177
aS'virginia preview'
p178
aS'delivery drug'
p179
aS'delivery service'
p180
aS'potential investigating'
p181
aS'potential llp'
p182
aS'taiwan stocks'
p183
aS'taiwan china'
p184
aS'park korea'
p185
aS'park south'
p186
aS'according survey'
p187
aS'according research'
p188
aS'battle mosul'
p189
aS'battle forces'
p190
aS'regional new'
p191
aS'regional center'
p192
aS'goldman sachs'
p193
aS'goldman conference'
p194
aS'venezuela maduro'
p195
aS'venezuela pdvsa'
p196
aS'crash plane'
p197
aS'crash killed'
p198
aS'interim report'
p199
aS'interim january'
p200
aS'success customer'
p201
aS'success new'
p202
aS'needs says'
p203
aS'needs meet'
p204
aS'land china'
p205
aS'land rover'
p206
aS'ruling court'
p207
aS'ruling party'
p208
aS'step ceo'
p209
aS'step takes'
p210
aS'stay says'
p211
aS'stay eu'
p212
aS'buys stake'
p213
aS'buys mln'
p214
aS'border cross'
p215
aS'border near'
p216
aS'presents data'
p217
aS'presents annual'
p218
aS'magazine named'
p219
aS'magazine best'
p220
aS'gulf mideast'
p221
aS'gulf stocks'
p222
aS'competition watchdog'
p223
aS'competition winners'
p224
aS'boeing 787'
p225
aS'boeing 737'
p226
aS'asian markets'
p227
aS'asian shares'
p228
aS'threat security'
p229
aS'threat says'
p230
aS'jump shares'
p231
aS'jump pct'
p232
aS'conferences upcoming'
p233
aS'conferences investor'
p234
aS'bring new'
p235
aS'bring partners'
p236
aS'aa fitch'
p237
aS'aa stable'
p238
aS'moody update'
p239
aS'moody rating'
p240
aS'asa reg'
p241
aS'asa presentation'
p242
aS'track fast'
p243
aS'track says'
p244
aS'continue says'
p245
aS'continue talks'
p246
aS'council security'
p247
aS'council national'
p248
aS'carolina north'
p249
aS'carolina south'
p250
aS'la ocrcvm'
p251
aS'la negociation'
p252
aS'disease research'
p253
aS'disease markets'
p254
aS'microsoft cloud'
p255
aS'microsoft azure'
p256
aS'training program'
p257
aS'training new'
p258
aS'consumers energy'
p259
aS'consumers new'
p260
aS'slips dollar'
p261
aS'slips stocks'
p262
aS'channel crn'
p263
aS'channel clear'
p264
aS'biggest weekly'
p265
aS'biggest gain'
p266
aS'james saft'
p267
aS'james raymond'
p268
aS'metals copper'
p269
aS'metals precious'
p270
aS'pakistan cricket'
p271
aS'pakistan indicators'
p272
aS'job cuts'
p273
aS'job growth'
p274
aS'music festival'
p275
aS'music new'
p276
aS'preliminary results'
p277
aS'preliminary quarter'
p278
aS'projects solar'
p279
aS'projects energy'
p280
aS'estimates profit'
p281
aS'estimates beats'
p282
aS'nigeria naira'
p283
aS'nigeria boko'
p284
aS'airport international'
p285
aS'airport new'
p286
aS'confirms dividend'
p287
aS'confirms energy'
p288
aS'provider service'
p289
aS'provider leading'
p290
aS'panel senate'
p291
aS'panel house'
p292
aS'electronics samsung'
p293
aS'electronics consumer'
p294
aS'tour pga'
p295
aS'tour golf'
p296
aS'euros bln'
p297
aS'euros mln'
p298
aS'legal action'
p299
aS'legal general'
p300
aS'nov watch'
p301
aS'nov factors'
p302
aS'students school'
p303
aS'students college'
p304
aS'northern ireland'
p305
aS'northern trust'
p306
aS'race presidential'
p307
aS'race sailing'
p308
aS'thursday quarter'
p309
aS'thursday results'
p310
aS'nikkei yen'
p311
aS'nikkei high'
p312
aS'card credit'
p313
aS'card report'
p314
aS'sept digest'
p315
aS'sept watch'
p316
aS'attacks paris'
p317
aS'attacks cyber'
p318
aS'returns new'
p319
aS'returns profit'
p320
aS'initial offering'
p321
aS'initial public'
p322
aS'mideast stocks'
p323
aS'mideast gulf'
p324
aS'search missing'
p325
aS'search volunteers'
p326
aS'philippines press'
p327
aS'philippines duterte'
p328
aS'dr board'
p329
aS'dr appoints'
p330
aS'faces new'
p331
aS'faces test'
p332
aS'cfo appoints'
p333
aS'cfo new'
p334
aS'automotive research'
p335
aS'automotive markets'
p336
aS'risks china'
p337
aS'risks fitch'
p338
aS'forum present'
p339
aS'forum annual'
p340
aS'foods quarter'
p341
aS'foods announces'
p342
aS'climate change'
p343
aS'climate paris'
p344
aS'holds steady'
p345
aS'holds rates'
p346
aS'wealth management'
p347
aS'wealth news'
p348
aS'department justice'
p349
aS'department state'
p350
aS'gives win'
p351
aS'gives new'
p352
aS'presentation webcast'
p353
aS'presentation conference'
p354
aS'coast ivory'
p355
aS'coast west'
p356
aS'build plant'
p357
aS'build new'
p358
aS'commerce chamber'
p359
aS'commerce b2c'
p360
aS'grow cagr'
p361
aS'grow market'
p362
aS'grand opening'
p363
aS'grand prix'
p364
aS'applications research'
p365
aS'applications markets'
p366
aS'force air'
p367
aS'force task'
p368
aS'updates guidance'
p369
aS'updates quarter'
p370
aS'ftse britain'
p371
aS'ftse 100'
p372
aS'australian shares'
p373
aS'australian open'
p374
aS'fraud securities'
p375
aS'fraud lawsuit'
p376
aS'short term'
p377
aS'short covering'
p378
aS'q4 profit'
p379
aS'q4 pct'
p380
aS'won says'
p381
aS'won em'
p382
aS'standard chartered'
p383
aS'standard business'
p384
aS'h1 review'
p385
aS'h1 pipeline'
p386
aS'oct watch'
p387
aS'oct factors'
p388
aS'exploration production'
p389
aS'exploration update'
p390
aS'officials say'
p391
aS'officials fed'
p392
aS'silver gold'
p393
aS'silver announces'
p394
aS'investments fund'
p395
aS'investments announces'
p396
aS'cyber security'
p397
aS'cyber attack'
p398
aS'drops profit'
p399
aS'drops pct'
p400
aS'crude oil'
p401
aS'crude prices'
p402
aS'factbox key'
p403
aS'factbox trump'
p404
aS'govt euro'
p405
aS'govt india'
p406
aS'malaysia press'
p407
aS'malaysia 1mdb'
p408
aS'copper metals'
p409
aS'copper gold'
p410
aS'good says'
p411
aS'good news'
p412
aS'equipment research'
p413
aS'equipment markets'
p414
aS'putin russia'
p415
aS'putin says'
p416
aS'selected awards'
p417
aS'selected program'
p418
aS'beats profit'
p419
aS'beats estimates'
p420
aS'nearly million'
p421
aS'nearly years'
p422
aS'testing market'
p423
aS'testing markets'
p424
aS'targets growth'
p425
aS'targets new'
p426
aS'wrapup growth'
p427
aS'wrapup economy'
p428
aS'announced previously'
p429
aS'announced winners'
p430
aS'pharma horizon'
p431
aS'pharma research'
p432
aS'sec willie'
p433
aS'sec briscoe'
p434
aS'barclays plc'
p435
aS'barclays form'
p436
aS'point futures'
p437
aS'point stocks'
p438
aS'improve health'
p439
aS'improve care'
p440
aS'opposition leader'
p441
aS'opposition syrian'
p442
aS'realty trust'
p443
aS'realty quarter'
p444
aS'hotel hotels'
p445
aS'hotel properties'
p446
aS'deliver solutions'
p447
aS'deliver keynote'
p448
aS'enters agreement'
p449
aS'enters market'
p450
aS'delivers new'
p451
aS'delivers performance'
p452
aS'john president'
p453
aS'john appoints'
p454
aS'sports gmt'
p455
aS'sports fantasy'
p456
aS'southern california'
p457
aS'southern norfolk'
p458
aS'google apple'
p459
aS'google zacks'
p460
aS'charges freight'
p461
aS'charges domestic'
p462
aS'england bank'
p463
aS'england cricket'
p464
aS'multi year'
p465
aS'multi dollar'
p466
aS'likely says'
p467
aS'likely fed'
p468
aS'events diary'
p469
aS'events economic'
p470
aS'patient care'
p471
aS'patient safety'
p472
aS'holding company'
p473
aS'holding reg'
p474
aS'golf open'
p475
aS'golf pga'
p476
aS'joint venture'
p477
aS'joint agreement'
p478
aS'better expected'
p479
aS'better new'
p480
aS'concerns stocks'
p481
aS'concerns china'
p482
aS'pressure blood'
p483
aS'pressure china'
p484
aS'wants says'
p485
aS'wants eu'
p486
aS'beat estimates'
p487
aS'beat sales'
p488
aS'settlement announces'
p489
aS'settlement million'
p490
aS'usa announces'
p491
aS'usa today'
p492
aS'sign agreement'
p493
aS'sign deal'
p494
aS'seek investors'
p495
aS'seek says'
p496
aS'members board'
p497
aS'members new'
p498
aS'notice reg'
p499
aS'notice meeting'
p500
aS'summer new'
p501
aS'summer travel'
p502
aS'feb watch'
p503
aS'feb factors'
p504
aS'recognized best'
p505
aS'recognized year'
p506
aS'venture joint'
p507
aS'venture capital'
p508
aS'businesses small'
p509
aS'businesses new'
p510
aS'army syrian'
p511
aS'army says'
p512
aS'purchase announces'
p513
aS'purchase agreement'
p514
aS'welcomes new'
p515
aS'welcomes board'
p516
aS'today diary'
p517
aS'today washington'
p518
aS'technical research'
p519
aS'technical report'
p520
aS'area bay'
p521
aS'area new'
p522
aS'possible fiduciary'
p523
aS'possible breaches'
p524
aS'additional announces'
p525
aS'additional million'
p526
aS'games olympics'
p527
aS'games rio'
p528
aS'steel china'
p529
aS'steel iron'
p530
aS'coal china'
p531
aS'coal india'
p532
aS'payment dividend'
p533
aS'payment announces'
p534
aS'patients cancer'
p535
aS'patients phase'
p536
aS'institute fraser'
p537
aS'institute research'
p538
aS'quality care'
p539
aS'quality high'
p540
aS'reveals survey'
p541
aS'reveals new'
p542
aS'innovative technology'
p543
aS'innovative solutions'
p544
aS'sells mln'
p545
aS'sells stake'
p546
aS'black friday'
p547
aS'black diamond'
p548
aS'precious gold'
p549
aS'precious dollar'
p550
aS'sanctions russia'
p551
aS'sanctions iran'
p552
aS'spending consumer'
p553
aS'spending cuts'
p554
aS'county fitch'
p555
aS'county orange'
p556
aS'run state'
p557
aS'run election'
p558
aS'african south'
p559
aS'african republic'
p560
aS'forces join'
p561
aS'forces iraqi'
p562
aS'treasuries yields'
p563
aS'treasuries prices'
p564
aS'total voting'
p565
aS'total rights'
p566
aS'boston scientific'
p567
aS'boston college'
p568
aS'push china'
p569
aS'push higher'
p570
aS'largest world'
p571
aS'largest nation'
p572
aS'entertainment announces'
p573
aS'entertainment universal'
p574
aS'negative fitch'
p575
aS'negative outlook'
p576
aS'natural gas'
p577
aS'natural resources'
p578
aS'housing starts'
p579
aS'housing market'
p580
aS'war crimes'
p581
aS'war syria'
p582
aS'website launches'
p583
aS'website new'
p584
aS'recovery disaster'
p585
aS'recovery economic'
p586
aS'aid rite'
p587
aS'aid syria'
p588
aS'telecom italia'
p589
aS'telecom media'
p590
aS'regulator china'
p591
aS'regulator says'
p592
aS'expand continues'
p593
aS'expand partnership'
p594
aS'ban travel'
p595
aS'ban court'
p596
aS'iraq islamic'
p597
aS'iraq state'
p598
aS'congress world'
p599
aS'congress mobile'
p600
aS'workers strike'
p601
aS'workers union'
p602
aS'expects rate'
p603
aS'expects fitch'
p604
aS'loans bad'
p605
aS'loans banks'
p606
aS'need says'
p607
aS'need new'
p608
aS'airlines american'
p609
aS'airlines southwest'
p610
aS'deals trac'
p611
aS'deals table'
p612
aS'devices research'
p613
aS'devices markets'
p614
aS'building products'
p615
aS'building new'
p616
aS'steady shares'
p617
aS'steady dollar'
p618
aS'options stock'
p619
aS'options grant'
p620
aS'column kemp'
p621
aS'column russell'
p622
aS'approves fda'
p623
aS'approves board'
p624
aS'application market'
p625
aS'application mobile'
p626
aS'way new'
p627
aS'way volunteers'
p628
aS'blue jays'
p629
aS'blue cross'
p630
aS'turkish lira'
p631
aS'turkish says'
p632
aS'manager general'
p633
aS'manager fund'
p634
aS'swiss factors'
p635
aS'swiss watch'
p636
aS'orders court'
p637
aS'orders million'
p638
aS'storage energy'
p639
aS'storage cloud'
p640
aS'paper white'
p641
aS'paper says'
p642
aS'jan digest'
p643
aS'jan watch'
p644
aS'strike workers'
p645
aS'strike air'
p646
aS'nasdaq stock'
p647
aS'nasdaq bell'
p648
aS'insight rpt'
p649
aS'insight research'
p650
aS'auction treasuries'
p651
aS'auction year'
p652
aS'syrian rebels'
p653
aS'syrian opposition'
p654
aS'leads past'
p655
aS'leads stocks'
p656
aS'electric vehicle'
p657
aS'electric car'
p658
aS'design new'
p659
aS'design award'
p660
aS'appointment announces'
p661
aS'appointment officer'
p662
aS'chicago police'
p663
aS'chicago new'
p664
aS'fda drug'
p665
aS'fda approval'
p666
aS'q2 profit'
p667
aS'q2 results'
p668
aS'opening grand'
p669
aS'opening announces'
p670
aS'brings new'
p671
aS'brings home'
p672
aS'poll reuters'
p673
aS'poll seen'
p674
aS'defense missile'
p675
aS'defense aerospace'
p676
aS'challenge court'
p677
aS'challenge winners'
p678
aS'motor racing'
p679
aS'motor f1'
p680
aS'order receives'
p681
aS'order million'
p682
aS'decision fed'
p683
aS'decision ahead'
p684
aS'wireless verizon'
p685
aS'wireless network'
p686
aS'college students'
p687
aS'college boston'
p688
aS'properties announces'
p689
aS'properties quarter'
p690
aS'governor bank'
p691
aS'governor corbett'
p692
aS'infrastructure research'
p693
aS'infrastructure markets'
p694
aS'strategy new'
p695
aS'strategy growth'
p696
aS'brands quarter'
p697
aS'brands results'
p698
aS'dead shot'
p699
aS'dead police'
p700
aS'israel gaza'
p701
aS'israel netanyahu'
p702
aS'flat stocks'
p703
aS'flat wall'
p704
aS'ends stocks'
p705
aS'ends wall'
p706
aS'singapore stocks'
p707
aS'singapore asia'
p708
aS'senate panel'
p709
aS'senate vote'
p710
aS'pricing offering'
p711
aS'pricing announces'
p712
aS'reuters thomson'
p713
aS'reuters poll'
p714
aS'experience customer'
p715
aS'experience new'
p716
aS'fuel cell'
p717
aS'fuel oil'
p718
aS'q3 profit'
p719
aS'q3 results'
p720
aS'party ruling'
p721
aS'party election'
p722
aS'warns china'
p723
aS'warns risks'
p724
aS'death toll'
p725
aS'death rises'
p726
aS'analyst blog'
p727
aS'analyst zacks'
p728
aS'hike rate'
p729
aS'hike fed'
p730
aS'analytics data'
p731
aS'analytics big'
p732
aS'ready says'
p733
aS'ready russia'
p734
aS'judge case'
p735
aS'judge lawsuit'
p736
aS'deutsche bank'
p737
aS'deutsche conference'
p738
aS'western asset'
p739
aS'western announces'
p740
aS'industries quarter'
p741
aS'industries results'
p742
aS'finds survey'
p743
aS'finds study'
p744
aS'reform tax'
p745
aS'reform pension'
p746
aS'people killed'
p747
aS'people new'
p748
aS'store sales'
p749
aS'store new'
p750
aS'hopes stocks'
p751
aS'hopes deal'
p752
aS'amid china'
p753
aS'amid stocks'
p754
aS'anti graft'
p755
aS'anti doping'
p756
aS'travel ban'
p757
aS'travel tourism'
p758
aS'latest week'
p759
aS'latest research'
p760
aS'participate conference'
p761
aS'participate conferences'
p762
aS'face banks'
p763
aS'face charges'
p764
aS'increases dividend'
p765
aS'increases quarterly'
p766
aS'led lighting'
p767
aS'led stocks'
p768
aS'growing fastest'
p769
aS'growing companies'
p770
aS'control gun'
p771
aS'control new'
p772
aS'extends gains'
p773
aS'extends losses'
p774
aS'construction markets'
p775
aS'construction research'
p776
aS'smart grid'
p777
aS'smart research'
p778
aS'impact fitch'
p779
aS'impact rating'
p780
aS'holiday season'
p781
aS'holiday shopping'
p782
aS'yen forex'
p783
aS'yen dollar'
p784
aS'drive growth'
p785
aS'drive new'
p786
aS'costs profit'
p787
aS'costs lower'
p788
aS'vs dollar'
p789
aS'vs preview'
p790
aS'provide services'
p791
aS'provide solutions'
p792
aS'bbb fitch'
p793
aS'bbb outlook'
p794
aS'spain says'
p795
aS'spain markets'
p796
aS'hospital children'
p797
aS'hospital health'
p798
aS'cup world'
p799
aS'cup soccer'
p800
aS'placement private'
p801
aS'placement announces'
p802
aS'gain stocks'
p803
aS'gain shares'
p804
aS'yields treasuries'
p805
aS'yields bond'
p806
aS'banking bank'
p807
aS'banking investment'
p808
aS'merger agreement'
p809
aS'merger approve'
p810
aS'phase trial'
p811
aS'phase clinical'
p812
aS'federal reserve'
p813
aS'federal government'
p814
aS'upcoming conferences'
p815
aS'upcoming investor'
p816
aS'reach billion'
p817
aS'reach market'
p818
aS'treatment cancer'
p819
aS'treatment fda'
p820
aS'advanced technology'
p821
aS'advanced announces'
p822
aS'green energy'
p823
aS'green light'
p824
aS'alliance strategic'
p825
aS'alliance announces'
p826
aS'guidance quarter'
p827
aS'guidance results'
p828
aS'return total'
p829
aS'return fund'
p830
aS'auto sales'
p831
aS'auto pct'
p832
aS'losses deadline'
p833
aS'losses investors'
p834
aS'event host'
p835
aS'event new'
p836
aS'live webcast'
p837
aS'live cattle'
p838
aS'customers new'
p839
aS'customers mobile'
p840
aS'children hospital'
p841
aS'children new'
p842
aS'generation power'
p843
aS'generation new'
p844
aS'eyes fed'
p845
aS'eyes china'
p846
aS'union credit'
p847
aS'union strike'
p848
aS'approval receives'
p849
aS'approval fda'
p850
aS'brand new'
p851
aS'brand launches'
p852
aS'local new'
p853
aS'local enhance'
p854
aS'hires moves'
p855
aS'hires new'
p856
aS'output oil'
p857
aS'output pct'
p858
aS'patent infringement'
p859
aS'patent receives'
p860
aS'manufacturing research'
p861
aS'manufacturing markets'
p862
aS'meet demand'
p863
aS'meet obama'
p864
aS'portfolio fund'
p865
aS'portfolio expands'
p866
aS'bancorp quarter'
p867
aS'bancorp announces'
p868
aS'value asset'
p869
aS'value net'
p870
aS'zone euro'
p871
aS'zone ecb'
p872
aS'claims jobless'
p873
aS'claims law'
p874
aS'mining gold'
p875
aS'mining announces'
p876
aS'closing announces'
p877
aS'closing offering'
p878
aS'drop stocks'
p879
aS'drop shares'
p880
aS'cost cuts'
p881
aS'cost low'
p882
aS'east middle'
p883
aS'east cotton'
p884
aS'past leads'
p885
aS'past lifts'
p886
aS'access market'
p887
aS'access new'
p888
aS'game win'
p889
aS'game new'
p890
aS'season holiday'
p891
aS'season new'
p892
aS'awarded contract'
p893
aS'awarded million'
p894
aS'raise bln'
p895
aS'raise mln'
p896
aS'positive outlook'
p897
aS'positive fitch'
p898
aS'facility credit'
p899
aS'facility million'
p900
aS'helps new'
p901
aS'helps beat'
p902
aS'fight islamic'
p903
aS'fight says'
p904
aS'ended 31'
p905
aS'ended results'
p906
aS'acquire agreement'
p907
aS'acquire announces'
p908
aS'edge shares'
p909
aS'edge higher'
p910
aS'files ipo'
p911
aS'files report'
p912
aS'networks results'
p913
aS'networks juniper'
p914
aS'join forces'
p915
aS'join invites'
p916
aS'crisis ukraine'
p917
aS'crisis says'
p918
aS'urges china'
p919
aS'urges eu'
p920
aS'star wars'
p921
aS'star lone'
p922
aS'discuss conference'
p923
aS'discuss results'
p924
aS'say police'
p925
aS'say officials'
p926
aS'non brokered'
p927
aS'non private'
p928
aS'makes debut'
p929
aS'makes new'
p930
aS'olympics rio'
p931
aS'olympics men'
p932
aS'plant power'
p933
aS'plant prefeasibility'
p934
aS'morgan stanley'
p935
aS'morgan conference'
p936
aS'deadline class'
p937
aS'deadline action'
p938
aS'internet things'
p939
aS'internet conference'
p940
aS'fx canada'
p941
aS'fx debt'
p942
aS'weak data'
p943
aS'weak stocks'
p944
aS'sector private'
p945
aS'sector research'
p946
aS'estate real'
p947
aS'estate investment'
p948
aS'red sox'
p949
aS'red hat'
p950
aS'inflation pct'
p951
aS'inflation fed'
p952
aS'worldwide market'
p953
aS'worldwide research'
p954
aS'list named'
p955
aS'list companies'
p956
aS'san francisco'
p957
aS'san diego'
p958
aS'tsx stocks'
p959
aS'tsx canada'
p960
aS'proposed offering'
p961
aS'proposed announces'
p962
aS'chairman board'
p963
aS'chairman ceo'
p964
aS'family dollar'
p965
aS'family new'
p966
aS'q1 profit'
p967
aS'q1 pct'
p968
aS'use new'
p969
aS'use says'
p970
aS'industrial info'
p971
aS'industrial output'
p972
aS'continues expansion'
p973
aS'continues growth'
p974
aS'celebrates anniversary'
p975
aS'celebrates years'
p976
aS'posts profit'
p977
aS'posts loss'
p978
aS'despite says'
p979
aS'despite oil'
p980
aS'apple iphone'
p981
aS'apple stocks'
p982
aS'social media'
p983
aS'social responsibility'
p984
aS'futures stocks'
p985
aS'futures castor'
p986
aS'greece euro'
p987
aS'greece says'
p988
aS'indonesia press'
p989
aS'indonesia pct'
p990
aS'gets prison'
p991
aS'gets years'
p992
aS'early warning'
p993
aS'early tender'
p994
aS'term long'
p995
aS'term short'
p996
aS'nuclear iran'
p997
aS'nuclear deal'
p998
aS'target price'
p999
aS'target raises'
p1000
aS'greek bailout'
p1001
aS'greek debt'
p1002
aS'closes million'
p1003
aS'closes financing'
p1004
aS'egypt mideast'
p1005
aS'egypt stocks'
p1006
aS'expected market'
p1007
aS'expected research'
p1008
aS'killed attack'
p1009
aS'killed police'
p1010
aS'london uk'
p1011
aS'london exchange'
p1012
aS'probe police'
p1013
aS'probe corruption'
p1014
aS'agency kroll'
p1015
aS'agency rating'
p1016
aS'ipo sources'
p1017
aS'ipo files'
p1018
aS'pacific asia'
p1019
aS'pacific announces'
p1020
aS'opportunities markets'
p1021
aS'opportunities research'
p1022
aS'assets sell'
p1023
aS'assets management'
p1024
aS'education higher'
p1025
aS'education new'
p1026
aS'florida preview'
p1027
aS'florida south'
p1028
aS'british digest'
p1029
aS'british press'
p1030
aS'unveils new'
p1031
aS'unveils platform'
p1032
aS'schedules conference'
p1033
aS'schedules quarter'
p1034
aS'ex divs'
p1035
aS'ex case'
p1036
aS'changes announces'
p1037
aS'changes management'
p1038
aS'digest press'
p1039
aS'digest times'
p1040
aS'sets date'
p1041
aS'sets quarter'
p1042
aS'highlights zacks'
p1043
aS'highlights blog'
p1044
aS'islamic state'
p1045
aS'islamic syria'
p1046
aS'leaders industry'
p1047
aS'leaders business'
p1048
aS'months ended'
p1049
aS'months results'
p1050
aS'mortgage rates'
p1051
aS'mortgage trust'
p1052
aS'washington state'
p1053
aS'washington diary'
p1054
aS'half second'
p1055
aS'half year'
p1056
aS'selects management'
p1057
aS'selects solution'
p1058
aS'special meeting'
p1059
aS'special report'
p1060
aS'refile table'
p1061
aS'refile group'
p1062
aS'foreign minister'
p1063
aS'foreign china'
p1064
aS'campaign launches'
p1065
aS'campaign new'
p1066
aS'post brexit'
p1067
aS'post earnings'
p1068
aS'hong kong'
p1069
aS'hong shares'
p1070
aS'kong hong'
p1071
aS'kong shares'
p1072
aS'loss posts'
p1073
aS'loss weight'
p1074
aS'shows study'
p1075
aS'shows new'
p1076
aS'start shares'
p1077
aS'start talks'
p1078
aS'budget deficit'
p1079
aS'budget cuts'
p1080
aS'enterprise cloud'
p1081
aS'enterprise management'
p1082
aS'work best'
p1083
aS'work places'
p1084
aS'exchange stock'
p1085
aS'exchange offer'
p1086
aS'therapeutics results'
p1087
aS'therapeutics announces'
p1088
aS'issues statement'
p1089
aS'issues letter'
p1090
aS'customer experience'
p1091
aS'customer service'
p1092
aS'february fourth'
p1093
aS'february quarter'
p1094
aS'firms china'
p1095
aS'firms oil'
p1096
aS'states united'
p1097
aS'states research'
p1098
aS'canadian solar'
p1099
aS'canadian canada'
p1100
aS'index vietnam'
p1101
aS'index pct'
p1102
aS'make announcement'
p1103
aS'make new'
p1104
aS'advisory media'
p1105
aS'advisory board'
p1106
aS'university state'
p1107
aS'university new'
p1108
aS'military syria'
p1109
aS'military says'
p1110
aS'expansion announces'
p1111
aS'expansion continues'
p1112
aS'rules new'
p1113
aS'rules court'
p1114
aS'information announces'
p1115
aS'information quarter'
p1116
aS'times press'
p1117
aS'times digest'
p1118
aS'safety food'
p1119
aS'safety patient'
p1120
aS'solar power'
p1121
aS'solar energy'
p1122
aS'supply chain'
p1123
aS'supply demand'
p1124
aS'innovation award'
p1125
aS'innovation awards'
p1126
aS'leadership team'
p1127
aS'leadership announces'
p1128
aS'association american'
p1129
aS'association cotton'
p1130
aS'seen shares'
p1131
aS'seen australia'
p1132
aS'statement reg'
p1133
aS'statement registration'
p1134
aS'funding million'
p1135
aS'funding series'
p1136
aS'available 4g'
p1137
aS'available lte'
p1138
aS'calls trump'
p1139
aS'calls eu'
p1140
aS'january 2014'
p1141
aS'january interim'
p1142
aS'money rates'
p1143
aS'money market'
p1144
aS'policy monetary'
p1145
aS'policy fed'
p1146
aS'focus fed'
p1147
aS'focus stocks'
p1148
aS'pharmaceuticals results'
p1149
aS'pharmaceuticals announces'
p1150
aS'rally stocks'
p1151
aS'rally shares'
p1152
aS'october quarter'
p1153
aS'october 2014'
p1154
aS'clinical trials'
p1155
aS'clinical trial'
p1156
aS'takes actions'
p1157
aS'takes aim'
p1158
aS'foundation announces'
p1159
aS'foundation grant'
p1160
aS'securities class'
p1161
aS'securities action'
p1162
aS'rating fitch'
p1163
aS'rating assigns'
p1164
aS'close credit'
p1165
aS'close rajkot'
p1166
aS'app mobile'
p1167
aS'app launches'
p1168
aS'declares dividend'
p1169
aS'declares quarterly'
p1170
aS'final results'
p1171
aS'final fitch'
p1172
aS'brexit uk'
p1173
aS'brexit eu'
p1174
aS'form plc'
p1175
aS'form reg'
p1176
aS'future markets'
p1177
aS'future research'
p1178
aS'financing million'
p1179
aS'financing announces'
p1180
aS'west virginia'
p1181
aS'west ham'
p1182
aS'seeks sources'
p1183
aS'seeks new'
p1184
aS'bid issuer'
p1185
aS'bid normal'
p1186
aS'major markets'
p1187
aS'major research'
p1188
aS'communications quarter'
p1189
aS'communications announces'
p1190
aS'december 31'
p1191
aS'december ended'
p1192
aS'man police'
p1193
aS'man soccer'
p1194
aS'commercial papers'
p1195
aS'commercial table'
p1196
aS'boost stocks'
p1197
aS'boost china'
p1198
aS'operations update'
p1199
aS'operations announces'
p1200
aS'test korea'
p1201
aS'test cricket'
p1202
aS'operating results'
p1203
aS'operating quarter'
p1204
aS'hold conference'
p1205
aS'hold quarter'
p1206
aS'performance high'
p1207
aS'performance new'
p1208
aS'trial clinical'
p1209
aS'trial phase'
p1210
aS'water american'
p1211
aS'water fitch'
p1212
aS'near high'
p1213
aS'near low'
p1214
aS'lawsuit class'
p1215
aS'lawsuit action'
p1216
aS'saudi arabia'
p1217
aS'saudi mideast'
p1218
aS'pay mln'
p1219
aS'pay million'
p1220
aS'white house'
p1221
aS'white sox'
p1222
aS'leading industry'
p1223
aS'leading provider'
p1224
aS'community bank'
p1225
aS'community announces'
p1226
aS'long term'
p1227
aS'long rigrodsky'
p1228
aS'small business'
p1229
aS'small businesses'
p1230
aS'tv breakingviews'
p1231
aS'tv state'
p1232
aS'attack killed'
p1233
aS'attack police'
p1234
aS'french benelux'
p1235
aS'french factors'
p1236
aS'income net'
p1237
aS'income fund'
p1238
aS'school high'
p1239
aS'school students'
p1240
aS'summit reuters'
p1241
aS'summit present'
p1242
aS'car sales'
p1243
aS'car bomb'
p1244
aS'trends research'
p1245
aS'trends markets'
p1246
aS'common stock'
p1247
aS'common offering'
p1248
aS'emerging markets'
p1249
aS'emerging stocks'
p1250
aS'food research'
p1251
aS'food markets'
p1252
aS'august second'
p1253
aS'august quarter'
p1254
aS'turkey erdogan'
p1255
aS'turkey says'
p1256
aS'september 30'
p1257
aS'september ended'
p1258
aS'line new'
p1259
aS'line product'
p1260
aS'product new'
p1261
aS'product line'
p1262
aS'property intellectual'
p1263
aS'property trust'
p1264
aS'rights voting'
p1265
aS'rights number'
p1266
aS'llp investigation'
p1267
aS'llp alert'
p1268
aS'britain ftse'
p1269
aS'britain eu'
p1270
aS'head moves'
p1271
aS'head names'
p1272
aS'equity private'
p1273
aS'equity announces'
p1274
aS'street wall'
p1275
aS'street stocks'
p1276
aS'production oil'
p1277
aS'production announces'
p1278
aS'asset management'
p1279
aS'asset value'
p1280
aS'unit sources'
p1281
aS'unit sale'
p1282
aS'distribution announces'
p1283
aS'distribution fund'
p1284
aS'germany merkel'
p1285
aS'germany says'
p1286
aS'women olympics'
p1287
aS'women men'
p1288
aS'funds hedge'
p1289
aS'funds lipper'
p1290
aS'moves head'
p1291
aS'moves names'
p1292
aS'video new'
p1293
aS'video shows'
p1294
aS'stake sell'
p1295
aS'stake pct'
p1296
aS'official china'
p1297
aS'official says'
p1298
aS'france hollande'
p1299
aS'france says'
p1300
aS'jobs data'
p1301
aS'jobs cut'
p1302
aS'based cloud'
p1303
aS'based funds'
p1304
aS'november quarter'
p1305
aS'november results'
p1306
aS'survey finds'
p1307
aS'survey reveals'
p1308
aS'ecb euro'
p1309
aS'ecb banks'
p1310
aS'trading insider'
p1311
aS'trading halt'
p1312
aS'retail sales'
p1313
aS'retail pct'
p1314
aS'free offers'
p1315
aS'free trade'
p1316
aS'election directors'
p1317
aS'election announces'
p1318
aS'change climate'
p1319
aS'change announces'
p1320
aS'sell stake'
p1321
aS'sell bln'
p1322
aS'vote brexit'
p1323
aS'vote senate'
p1324
aS'consumer confidence'
p1325
aS'consumer research'
p1326
aS'adds new'
p1327
aS'adds issue'
p1328
aS'tech stocks'
p1329
aS'tech wall'
p1330
aS'italy factors'
p1331
aS'italy watch'
p1332
aS'investigation alert'
p1333
aS'investigation llp'
p1334
aS'limited reg'
p1335
aS'limited announces'
p1336
aS'texas preview'
p1337
aS'texas state'
p1338
aS'pm says'
p1339
aS'pm uk'
p1340
aS'loan bank'
p1341
aS'loan student'
p1342
aS'cut rate'
p1343
aS'cut jobs'
p1344
aS'africa south'
p1345
aS'africa zuma'
p1346
aS'pipeline research'
p1347
aS'pipeline markets'
p1348
aS'exclusive sources'
p1349
aS'exclusive agreement'
p1350
aS'director managing'
p1351
aS'director appoints'
p1352
aS'cuts forecast'
p1353
aS'cuts cost'
p1354
aS'factors watch'
p1355
aS'factors stocks'
p1356
aS'llc announces'
p1357
aS'llc alert'
p1358
aS'increase dividend'
p1359
aS'increase announces'
p1360
aS'case court'
p1361
aS'case judge'
p1362
aS'vice president'
p1363
aS'vice senior'
p1364
aS'leader opposition'
p1365
aS'leader named'
p1366
aS'iran nuclear'
p1367
aS'iran deal'
p1368
aS'russian says'
p1369
aS'russian ukraine'
p1370
aS'signs agreement'
p1371
aS'signs deal'
p1372
aS'economy minister'
p1373
aS'economy global'
p1374
aS'source open'
p1375
aS'source deal'
p1376
aS'news morning'
p1377
aS'news wealth'
p1378
aS'forex dollar'
p1379
aS'forex yen'
p1380
aS'office opens'
p1381
aS'office box'
p1382
aS'offers new'
p1383
aS'offers free'
p1384
aS'contract awarded'
p1385
aS'contract wins'
p1386
aS'shareholders meeting'
p1387
aS'shareholders annual'
p1388
aS'partnership announces'
p1389
aS'partnership strategic'
p1390
aS'shareholder alert'
p1391
aS'shareholder investigation'
p1392
aS'issue bond'
p1393
aS'issue prices'
p1394
aS'introduces new'
p1395
aS'introduces tm'
p1396
aS'mexico peso'
p1397
aS'mexico new'
p1398
aS'opens new'
p1399
aS'opens stocks'
p1400
aS'bonds fitch'
p1401
aS'bonds stable'
p1402
aS'ratings fitch'
p1403
aS'ratings affirms'
p1404
aS'finance minister'
p1405
aS'finance fitch'
p1406
aS'date quarter'
p1407
aS'date announces'
p1408
aS'marketing new'
p1409
aS'marketing sales'
p1410
aS'table india'
p1411
aS'table rupees'
p1412
aS'cancer breast'
p1413
aS'cancer research'
p1414
aS'ukraine russia'
p1415
aS'ukraine says'
p1416
aS'acquires group'
p1417
aS'acquires company'
p1418
aS'products new'
p1419
aS'products research'
p1420
aS'strategic partnership'
p1421
aS'strategic global'
p1422
aS'real estate'
p1423
aS'real time'
p1424
aS'july second'
p1425
aS'july quarter'
p1426
aS'gains stocks'
p1427
aS'gains dollar'
p1428
aS'drug research'
p1429
aS'drug fda'
p1430
aS'hits high'
p1431
aS'hits low'
p1432
aS'webcast conference'
p1433
aS'webcast quarter'
p1434
aS'forecasts markets'
p1435
aS'forecasts research'
p1436
aS'lower stocks'
p1437
aS'lower wall'
p1438
aS'obama house'
p1439
aS'obama white'
p1440
aS'raises million'
p1441
aS'raises target'
p1442
aS'indian instruments'
p1443
aS'indian ratings'
p1444
aS'risk management'
p1445
aS'risk appetite'
p1446
aS'cash dividend'
p1447
aS'cash quarterly'
p1448
aS'completes acquisition'
p1449
aS'completes million'
p1450
aS'solution management'
p1451
aS'solution launches'
p1452
aS'united states'
p1453
aS'united research'
p1454
aS'digital media'
p1455
aS'digital new'
p1456
aS'german factors'
p1457
aS'german watch'
p1458
aS'price oil'
p1459
aS'price target'
p1460
aS'april quarter'
p1461
aS'april 2014'
p1462
aS'online launches'
p1463
aS'online new'
p1464
aS'california southern'
p1465
aS'california water'
p1466
aS'partner program'
p1467
aS'partner new'
p1468
aS'syria russia'
p1469
aS'syria says'
p1470
aS'series fitch'
p1471
aS'series million'
p1472
aS'years celebrates'
p1473
aS'years 10'
p1474
aS'life insurance'
p1475
aS'life sciences'
p1476
aS'class action'
p1477
aS'class lawsuit'
p1478
aS'plc reg'
p1479
aS'plc form'
p1480
aS'corporate update'
p1481
aS'corporate provides'
p1482
aS'host conference'
p1483
aS'host quarter'
p1484
aS'key markets'
p1485
aS'key research'
p1486
aS'cloud based'
p1487
aS'cloud services'
p1488
aS'strong quarter'
p1489
aS'strong growth'
p1490
aS'offer tender'
p1491
aS'offer announces'
p1492
aS'hit high'
p1493
aS'hit shares'
p1494
aS'falls profit'
p1495
aS'falls pct'
p1496
aS'platform launches'
p1497
aS'platform new'
p1498
aS'buy bln'
p1499
aS'buy billion'
p1500
aS'network new'
p1501
aS'network expands'
p1502
aS'care health'
p1503
aS'care conference'
p1504
aS'air force'
p1505
aS'air strikes'
p1506
aS'europe markets'
p1507
aS'europe research'
p1508
aS'economic times'
p1509
aS'economic diary'
p1510
aS'forecast market'
p1511
aS'forecast research'
p1512
aS'notes senior'
p1513
aS'notes offering'
p1514
aS'releases report'
p1515
aS'releases fitch'
p1516
aS'quarterly dividend'
p1517
aS'quarterly declares'
p1518
aS'demand strong'
p1519
aS'demand china'
p1520
aS'provides update'
p1521
aS'provides quarter'
p1522
aS'action class'
p1523
aS'action lawsuit'
p1524
aS'june 30'
p1525
aS'june ended'
p1526
aS'preview state'
p1527
aS'preview vs'
p1528
aS'house white'
p1529
aS'house obama'
p1530
aS'development business'
p1531
aS'development vice'
p1532
aS'trust fitch'
p1533
aS'trust realty'
p1534
aS'net profit'
p1535
aS'net income'
p1536
aS'resources announces'
p1537
aS'resources natural'
p1538
aS'big data'
p1539
aS'big analytics'
p1540
aS'general meeting'
p1541
aS'general annual'
p1542
aS'central bank'
p1543
aS'central rate'
p1544
aS'police arrest'
p1545
aS'police shooting'
p1546
aS'chinese research'
p1547
aS'chinese industry'
p1548
aS'help new'
p1549
aS'help launches'
p1550
aS'project gold'
p1551
aS'project announces'
p1552
aS'lead plaintiff'
p1553
aS'lead deadline'
p1554
aS'soccer says'
p1555
aS'soccer chelsea'
p1556
aS'st wall'
p1557
aS'st stocks'
p1558
aS'rises pct'
p1559
aS'rises profit'
p1560
aS'software management'
p1561
aS'software announces'
p1562
aS'team expands'
p1563
aS'team leadership'
p1564
aS'com new'
p1565
aS'com launches'
p1566
aS'city york'
p1567
aS'city new'
p1568
aS'korea north'
p1569
aS'korea south'
p1570
aS'australia shares'
p1571
aS'australia nz'
p1572
aS'receives award'
p1573
aS'receives approval'
p1574
aS'revenue quarter'
p1575
aS'revenue pct'
p1576
aS'joins board'
p1577
aS'joins directors'
p1578
aS'sees growth'
p1579
aS'sees pct'
p1580
aS'press digest'
p1581
aS'press times'
p1582
aS'higher stocks'
p1583
aS'higher shares'
p1584
aS'medical center'
p1585
aS'medical marijuana'
p1586
aS'watch factors'
p1587
aS'watch stocks'
p1588
aS'york new'
p1589
aS'york city'
p1590
aS'asia se'
p1591
aS'asia stocks'
p1592
aS'insurance life'
p1593
aS'insurance best'
p1594
aS'low month'
p1595
aS'low week'
p1596
aS'set open'
p1597
aS'set stocks'
p1598
aS'trade china'
p1599
aS'trade eu'
p1600
aS'study new'
p1601
aS'study phase'
p1602
aS'minister finance'
p1603
aS'minister says'
p1604
aS'alert shareholder'
p1605
aS'alert investigation'
p1606
aS'center data'
p1607
aS'center new'
p1608
aS'directors board'
p1609
aS'directors announces'
p1610
aS'stable outlook'
p1611
aS'stable fitch'
p1612
aS'officer chief'
p1613
aS'officer appoints'
p1614
aS'companies markets'
p1615
aS'companies research'
p1616
aS'law firm'
p1617
aS'law alert'
p1618
aS'win straight'
p1619
aS'win soccer'
p1620
aS'holdings quarter'
p1621
aS'holdings announces'
p1622
aS'awards wins'
p1623
aS'awards annual'
p1624
aS'public offering'
p1625
aS'public common'
p1626
aS'private placement'
p1627
aS'private announces'
p1628
aS'executive chief'
p1629
aS'executive officer'
p1630
aS'acquisition completes'
p1631
aS'acquisition announces'
p1632
aS'launch announces'
p1633
aS'launch new'
p1634
aS'tax reform'
p1635
aS'tax plan'
p1636
aS'gas oil'
p1637
aS'gas natural'
p1638
aS'plans says'
p1639
aS'plans new'
p1640
aS'month high'
p1641
aS'month low'
p1642
aS'march 31'
p1643
aS'march 2014'
p1644
aS'wins award'
p1645
aS'wins awards'
p1646
aS'review research'
p1647
aS'review markets'
p1648
aS'ahead week'
p1649
aS'ahead stocks'
p1650
aS'senior notes'
p1651
aS'senior announces'
p1652
aS'rpt fitch'
p1653
aS'rpt affirms'
p1654
aS'time warner'
p1655
aS'time real'
p1656
aS'expands team'
p1657
aS'expands new'
p1658
aS'credit suisse'
p1659
aS'credit facility'
p1660
aS'government harper'
p1661
aS'government says'
p1662
aS'offering public'
p1663
aS'offering announces'
p1664
aS'analysis research'
p1665
aS'analysis markets'
p1666
aS'names president'
p1667
aS'names chief'
p1668
aS'affirms fitch'
p1669
aS'affirms outlook'
p1670
aS'tm launches'
p1671
aS'tm announces'
p1672
aS'talks says'
p1673
aS'talks peace'
p1674
aS'plan announces'
p1675
aS'plan new'
p1676
aS'support new'
p1677
aS'support announces'
p1678
aS'appoints officer'
p1679
aS'appoints chief'
p1680
aS'rate hike'
p1681
aS'rate fed'
p1682
aS'japan abe'
p1683
aS'japan korea'
p1684
aS'percent profit'
p1685
aS'percent sales'
p1686
aS'firm law'
p1687
aS'firm alert'
p1688
aS'court supreme'
p1689
aS'court case'
p1690
aS'rates fitch'
p1691
aS'rates stable'
p1692
aS'investor present'
p1693
aS'investor conferences'
p1694
aS'wall st'
p1695
aS'wall stocks'
p1696
aS'sources exclusive'
p1697
aS'sources sale'
p1698
aS'service new'
p1699
aS'service launches'
p1700
aS'technologies announces'
p1701
aS'technologies quarter'
p1702
aS'home sales'
p1703
aS'home new'
p1704
aS'announce results'
p1705
aS'announce quarter'
p1706
aS'euro zone'
p1707
aS'euro forex'
p1708
aS'security cyber'
p1709
aS'security new'
p1710
aS'named year'
p1711
aS'named best'
p1712
aS'systems research'
p1713
aS'systems announces'
p1714
aS'agreement signs'
p1715
aS'agreement announces'
p1716
aS'european shares'
p1717
aS'european factors'
p1718
aS'sale announces'
p1719
aS'sale alert'
p1720
aS'update provides'
p1721
aS'update corporate'
p1722
aS'healthcare conference'
p1723
aS'healthcare present'
p1724
aS'trump says'
p1725
aS'trump clinton'
p1726
aS'open stocks'
p1727
aS'open set'
p1728
aS'brazil markets'
p1729
aS'brazil emerging'
p1730
aS'investors alert'
p1731
aS'investors deadline'
p1732
aS'fall shares'
p1733
aS'fall stocks'
p1734
aS'award wins'
p1735
aS'award receives'
p1736
aS'dividend declares'
p1737
aS'dividend quarterly'
p1738
aS'bond issue'
p1739
aS'bond prices'
p1740
aS'meeting annual'
p1741
aS'meeting general'
p1742
aS'corp announces'
p1743
aS'corp quarter'
p1744
aS'stock common'
p1745
aS'stock announces'
p1746
aS'mln issue'
p1747
aS'mln bond'
p1748
aS'share dividend'
p1749
aS'share repurchase'
p1750
aS'debt fx'
p1751
aS'debt canada'
p1752
aS'banks fitch'
p1753
aS'banks stocks'
p1754
aS'best ratings'
p1755
aS'best named'
p1756
aS'south africa'
p1757
aS'south korea'
p1758
aS'america north'
p1759
aS'america bank'
p1760
aS'program announces'
p1761
aS'program repurchase'
p1762
aS'north korea'
p1763
aS'north america'
p1764
aS'solutions announces'
p1765
aS'solutions new'
p1766
aS'week ahead'
p1767
aS'week low'
p1768
aS'eu says'
p1769
aS'eu deal'
p1770
aS'fed stocks'
p1771
aS'fed rate'
p1772
aS'dollar forex'
p1773
aS'dollar fed'
p1774
aS'bln rupees'
p1775
aS'bln india'
p1776
aS'fund income'
p1777
aS'fund hedge'
p1778
aS'power solar'
p1779
aS'power energy'
p1780
aS'record reports'
p1781
aS'record quarter'
p1782
aS'national bank'
p1783
aS'national announces'
p1784
aS'mobile app'
p1785
aS'mobile launches'
p1786
aS'russia says'
p1787
aS'russia ukraine'
p1788
aS'investment announces'
p1789
aS'investment capital'
p1790
aS'american north'
p1791
aS'american announces'
p1792
aS'prices issue'
p1793
aS'prices bond'
p1794
aS'day investor'
p1795
aS'day ahead'
p1796
aS'end year'
p1797
aS'end fourth'
p1798
aS'rise pct'
p1799
aS'rise stocks'
p1800
aS'billion market'
p1801
aS'billion research'
p1802
aS'partners announces'
p1803
aS'partners energy'
p1804
aS'release quarter'
p1805
aS'release earnings'
p1806
aS'gold precious'
p1807
aS'gold dollar'
p1808
aS'chief officer'
p1809
aS'chief appoints'
p1810
aS'uk brexit'
p1811
aS'uk factors'
p1812
aS'health care'
p1813
aS'health insurance'
p1814
aS'president vice'
p1815
aS'president appoints'
p1816
aS'fiscal quarter'
p1817
aS'fiscal results'
p1818
aS'media advisory'
p1819
aS'media india'
p1820
aS'board directors'
p1821
aS'board announces'
p1822
aS'high month'
p1823
aS'high hits'
p1824
aS'canada tsx'
p1825
aS'canada stocks'
p1826
aS'ceo says'
p1827
aS'ceo president'
p1828
aS'present conference'
p1829
aS'present annual'
p1830
aS'deal iran'
p1831
aS'deal says'
p1832
aS'international announces'
p1833
aS'international quarter'
p1834
aS'world cup'
p1835
aS'world markets'
p1836
aS'reg plc'
p1837
aS'reg form'
p1838
aS'profit pct'
p1839
aS'profit net'
p1840
aS'services financial'
p1841
aS'services announces'
p1842
aS'technology conference'
p1843
aS'technology present'
p1844
aS'management asset'
p1845
aS'management announces'
p1846
aS'outlook stable'
p1847
aS'outlook fitch'
p1848
aS'state islamic'
p1849
aS'state preview'
p1850
aS'fourth quarter'
p1851
aS'fourth results'
p1852
aS'company announces'
p1853
aS'company quarter'
p1854
aS'capital announces'
p1855
aS'capital markets'
p1856
aS'india table'
p1857
aS'india rupees'
p1858
aS'pct profit'
p1859
aS'pct sales'
p1860
aS'corporation quarter'
p1861
aS'corporation announces'
p1862
aS'industry research'
p1863
aS'industry markets'
p1864
aS'sales pct'
p1865
aS'sales retail'
p1866
aS'annual meeting'
p1867
aS'annual conference'
p1868
aS'launches new'
p1869
aS'launches website'
p1870
aS'growth market'
p1871
aS'growth global'
p1872
aS'oil gas'
p1873
aS'oil stocks'
p1874
aS'earnings quarter'
p1875
aS'earnings conference'
p1876
aS'data stocks'
p1877
aS'data jobs'
p1878
aS'business small'
p1879
aS'business report'
p1880
aS'shares european'
p1881
aS'shares australia'
p1882
aS'fitch affirms'
p1883
aS'fitch outlook'
p1884
aS'energy announces'
p1885
aS'energy quarter'
p1886
aS'second quarter'
p1887
aS'second results'
p1888
aS'million announces'
p1889
aS'million financing'
p1890
aS'group announces'
p1891
aS'group results'
p1892
aS'stocks wall'
p1893
aS'stocks st'
p1894
aS'bank central'
p1895
aS'bank deutsche'
p1896
aS'china markets'
p1897
aS'china says'
p1898
aS'report research'
p1899
aS'report markets'
p1900
aS'reports quarter'
p1901
aS'reports results'
p1902
aS'conference quarter'
p1903
aS'conference present'
p1904
aS'global markets'
p1905
aS'global research'
p1906
aS'year fourth'
p1907
aS'year results'
p1908
aS'market research'
p1909
aS'market markets'
p1910
aS'financial results'
p1911
aS'financial quarter'
p1912
aS'says russia'
p1913
aS'says china'
p1914
aS'research markets'
p1915
aS'research market'
p1916
aS'markets research'
p1917
aS'markets market'
p1918
aS'results quarter'
p1919
aS'results reports'
p1920
aS'quarter results'
p1921
aS'quarter reports'
p1922
aS'new york'
p1923
aS'new announces'
p1924
aS'announces quarter'
p1925
aS'announces results'
p1926
a.